; Function Attrs: nounwind uwtable
define dso_local zeroext i1 @preempt_p_job_preempt_check(ptr noundef readonly captures(none) %0, ptr noundef readonly captures(none) %1) local_unnamed_addr #0 {
  %3 = getelementptr inbounds nuw i8, ptr %1, i64 8
  %4 = load ptr, ptr %3, align 8
  %5 = getelementptr inbounds nuw i8, ptr %0, i64 8
  %6 = load ptr, ptr %5, align 8
  %7 = getelementptr inbounds nuw i8, ptr %4, i64 768
  %8 = load ptr, ptr %7, align 8
  %9 = getelementptr inbounds nuw i8, ptr %6, i64 768
  %10 = load ptr, ptr %9, align 8
  %11 = icmp ne ptr %8, null
  %12 = icmp ne ptr %10, null
  %or.cond.i = select i1 %11, i1 %12, i1 false
  br i1 %or.cond.i, label %13, label %preempt_p_preemptable.exit

13:                                               ; preds = %2
  %14 = getelementptr inbounds nuw i8, ptr %10, i64 16
  %15 = load i32, ptr %14, align 8
  %16 = getelementptr inbounds nuw i8, ptr %8, i64 16
  %17 = load i32, ptr %16, align 8
  %18 = icmp eq i32 %15, %17
  br i1 %18, label %19, label %32

19:                                               ; preds = %13
  %20 = getelementptr inbounds nuw i8, ptr %10, i64 288
  %21 = load i16, ptr %20, align 8
  %22 = and i16 %21, 16384
  %.not19.i = icmp eq i16 %22, 0
  br i1 %.not19.i, label %23, label %26

23:                                               ; preds = %19
  %24 = load i16, ptr getelementptr inbounds nuw (i8, ptr @slurm_conf, i64 796), align 4
  %25 = and i16 %24, 16384
  %.not20.i = icmp eq i16 %25, 0
  br i1 %.not20.i, label %preempt_p_preemptable.exit, label %26

26:                                               ; preds = %23, %19
  %27 = getelementptr inbounds nuw i8, ptr %6, i64 720
  %28 = load i32, ptr %27, align 8
  %29 = getelementptr inbounds nuw i8, ptr %4, i64 720
  %30 = load i32, ptr %29, align 8
  %31 = icmp ugt i32 %28, %30
  br label %preempt_p_preemptable.exit

32:                                               ; preds = %13
  %33 = getelementptr inbounds nuw i8, ptr %10, i64 272
  %34 = load ptr, ptr %33, align 8
  %.not.i = icmp eq ptr %34, null
  br i1 %.not.i, label %preempt_p_preemptable.exit, label %35

35:                                               ; preds = %32
  %36 = zext i32 %17 to i64
  %37 = tail call i32 @slurm_bit_test(ptr noundef nonnull %34, i64 noundef %36) #4
  %.not18.i = icmp ne i32 %37, 0
  br label %preempt_p_preemptable.exit

preempt_p_preemptable.exit:                       ; preds = %2, %23, %26, %32, %35
  %.0.i = phi i1 [ %31, %26 ], [ false, %2 ], [ false, %23 ], [ false, %32 ], [ %.not18.i, %35 ]
  ret i1 %.0.i
}